; Function Attrs: mustprogress uwtable
define internal void @"_ZNSt17_Function_handlerIFvvEZN3gmx23ExpandedEnsembleElement12scheduleTaskEldRKSt8functionIFvS3_IS0_EEEE3$_0E9_M_invokeERKSt9_Any_data"(ptr nocapture noundef nonnull readonly align 8 dereferenceable(16) %0) #0 align 2 {
  %.val = load ptr, ptr %0, align 8
  %2 = load ptr, ptr %.val, align 8
  %3 = getelementptr inbounds i8, ptr %.val, i64 8
  %4 = load i64, ptr %3, align 8
  %5 = getelementptr inbounds i8, ptr %.val, i64 16
  %6 = load i8, ptr %5, align 8
  %7 = trunc i8 %6 to i1
  %8 = getelementptr inbounds i8, ptr %.val, i64 17
  %9 = load i8, ptr %8, align 1
  %10 = trunc i8 %9 to i1
  tail call void @_ZN3gmx23ExpandedEnsembleElement5applyElbb(ptr noundef nonnull align 8 dereferenceable(144) %2, i64 noundef %4, i1 noundef zeroext %7, i1 noundef zeroext %10)
  ret void
}